; Function Attrs: nounwind uwtable
define range(i32 0, 256) i32 @avio_r8(ptr noundef %0) local_unnamed_addr #3 {
  %2 = getelementptr inbounds nuw i8, ptr %0, i64 24
  %3 = load ptr, ptr %2, align 8, !tbaa !16
  %4 = getelementptr inbounds nuw i8, ptr %0, i64 32
  %5 = load ptr, ptr %4, align 8, !tbaa !19
  %.not = icmp ult ptr %3, %5
  br i1 %.not, label %7, label %6

6:                                                ; preds = %1
  tail call fastcc void @fill_buffer(ptr noundef nonnull %0)
  %.pre = load ptr, ptr %2, align 8, !tbaa !16
  %.pre7 = load ptr, ptr %4, align 8, !tbaa !19
  br label %7

7:                                                ; preds = %6, %1
  %8 = phi ptr [ %.pre7, %6 ], [ %5, %1 ]
  %9 = phi ptr [ %.pre, %6 ], [ %3, %1 ]
  %10 = icmp ult ptr %9, %8
  br i1 %10, label %11, label %15

11:                                               ; preds = %7
  %12 = getelementptr inbounds nuw i8, ptr %9, i64 1
  store ptr %12, ptr %2, align 8, !tbaa !16
  %13 = load i8, ptr %9, align 1, !tbaa !33
  %14 = zext i8 %13 to i32
  br label %15

15:                                               ; preds = %7, %11
  %.0 = phi i32 [ %14, %11 ], [ 0, %7 ]
  ret i32 %.0
}